target datalayout = "e-m:e-p270:32:32-p271:32:32-p272:64:64-i64:64-i128:128-f80:128-n8:16:32:64-S128"
target triple = "x86_64-pc-linux-gnu"

%struct.CFF_Builder_FuncsRec_ = type { ptr, ptr, ptr, ptr, ptr, ptr, ptr, ptr }
%struct.FT_BBox_ = type { i64, i64, i64, i64 }
%struct.FT_Vector_ = type { i64, i64 }
%struct.CFF_Builder_ = type { ptr, ptr, ptr, ptr, ptr, ptr, i64, i64, %struct.FT_Vector_, %struct.FT_Vector_, %struct.FT_BBox_, i8, i8, i8, i8, ptr, ptr, %struct.CFF_Builder_FuncsRec_ }
%struct.FT_Outline_ = type { i16, i16, ptr, ptr, ptr, i32 }

; Function Attrs: nounwind uwtable
define internal void @cff_builder_add_point(ptr noundef %0, i64 noundef %1, i64 noundef %2, i8 noundef zeroext %3) #0 {
  %5 = alloca ptr, align 8
  %6 = alloca i64, align 8
  %7 = alloca i64, align 8
  %8 = alloca i8, align 1
  %9 = alloca ptr, align 8
  %10 = alloca ptr, align 8
  %11 = alloca ptr, align 8
  store ptr %0, ptr %5, align 8
  store i64 %1, ptr %6, align 8
  store i64 %2, ptr %7, align 8
  store i8 %3, ptr %8, align 1
  %12 = load ptr, ptr %5, align 8
  %13 = getelementptr inbounds %struct.CFF_Builder_, ptr %12, i32 0, i32 5
  %14 = load ptr, ptr %13, align 8
  store ptr %14, ptr %9, align 8
  %15 = load ptr, ptr %5, align 8
  %16 = getelementptr inbounds %struct.CFF_Builder_, ptr %15, i32 0, i32 12
  %17 = load i8, ptr %16, align 1
  %18 = icmp ne i8 %17, 0
  br i1 %18, label %19, label %52

19:                                               ; preds = %4
  %20 = load ptr, ptr %9, align 8
  %21 = getelementptr inbounds %struct.FT_Outline_, ptr %20, i32 0, i32 2
  %22 = load ptr, ptr %21, align 8
  %23 = load ptr, ptr %9, align 8
  %24 = getelementptr inbounds %struct.FT_Outline_, ptr %23, i32 0, i32 1
  %25 = load i16, ptr %24, align 2
  %26 = zext i16 %25 to i32
  %27 = sext i32 %26 to i64
  %28 = getelementptr inbounds %struct.FT_Vector_, ptr %22, i64 %27
  store ptr %28, ptr %10, align 8
  %29 = load ptr, ptr %9, align 8
  %30 = getelementptr inbounds %struct.FT_Outline_, ptr %29, i32 0, i32 3
  %31 = load ptr, ptr %30, align 8
  %32 = load ptr, ptr %9, align 8
  %33 = getelementptr inbounds %struct.FT_Outline_, ptr %32, i32 0, i32 1
  %34 = load i16, ptr %33, align 2
  %35 = zext i16 %34 to i32
  %36 = sext i32 %35 to i64
  %37 = getelementptr inbounds i8, ptr %31, i64 %36
  store ptr %37, ptr %11, align 8
  %38 = load i64, ptr %6, align 8
  %39 = ashr i64 %38, 10
  %40 = load ptr, ptr %10, align 8
  %41 = getelementptr inbounds %struct.FT_Vector_, ptr %40, i32 0, i32 0
  store i64 %39, ptr %41, align 8
  %42 = load i64, ptr %7, align 8
  %43 = ashr i64 %42, 10
  %44 = load ptr, ptr %10, align 8
  %45 = getelementptr inbounds %struct.FT_Vector_, ptr %44, i32 0, i32 1
  store i64 %43, ptr %45, align 8
  %46 = load i8, ptr %8, align 1
  %47 = zext i8 %46 to i32
  %48 = icmp ne i32 %47, 0
  %49 = select i1 %48, i32 1, i32 2
  %50 = trunc i32 %49 to i8
  %51 = load ptr, ptr %11, align 8
  store i8 %50, ptr %51, align 1
  br label %52

52:                                               ; preds = %19, %4
  %53 = load ptr, ptr %9, align 8
  %54 = getelementptr inbounds %struct.FT_Outline_, ptr %53, i32 0, i32 1
  %55 = load i16, ptr %54, align 2
  %56 = add i16 %55, 1
  store i16 %56, ptr %54, align 2
  ret void
}