; Function Attrs: mustprogress nofree norecurse nosync nounwind willreturn memory(readwrite, inaccessiblemem: none) uwtable
define internal void @cff_builder_add_point(ptr noundef readonly captures(none) %0, i64 noundef %1, i64 noundef %2, i8 noundef zeroext %3) #5 {
  %5 = getelementptr inbounds nuw i8, ptr %0, i64 40
  %6 = load ptr, ptr %5, align 8
  %7 = getelementptr inbounds nuw i8, ptr %0, i64 129
  %8 = load i8, ptr %7, align 1
  %.not = icmp eq i8 %8, 0
  br i1 %.not, label %23, label %9

9:                                                ; preds = %4
  %10 = getelementptr inbounds nuw i8, ptr %6, i64 8
  %11 = load ptr, ptr %10, align 8
  %12 = getelementptr inbounds nuw i8, ptr %6, i64 2
  %13 = load i16, ptr %12, align 2
  %14 = zext i16 %13 to i64
  %15 = getelementptr inbounds nuw %struct.FT_Vector_, ptr %11, i64 %14
  %16 = getelementptr inbounds nuw i8, ptr %6, i64 16
  %17 = load ptr, ptr %16, align 8
  %18 = getelementptr inbounds nuw i8, ptr %17, i64 %14
  %19 = ashr i64 %1, 10
  store i64 %19, ptr %15, align 8
  %20 = ashr i64 %2, 10
  %21 = getelementptr inbounds nuw i8, ptr %15, i64 8
  store i64 %20, ptr %21, align 8
  %.not12 = icmp eq i8 %3, 0
  %22 = select i1 %.not12, i8 2, i8 1
  store i8 %22, ptr %18, align 1
  br label %23

23:                                               ; preds = %9, %4
  %24 = getelementptr inbounds nuw i8, ptr %6, i64 2
  %25 = load i16, ptr %24, align 2
  %26 = add i16 %25, 1
  store i16 %26, ptr %24, align 2
  ret void
}